target datalayout = "e-m:e-p270:32:32-p271:32:32-p272:64:64-i64:64-i128:128-f80:128-n8:16:32:64-S128"
target triple = "x86_64-pc-linux-gnu"

%struct.epan_uat = type { ptr, i64, ptr, i8, ptr, i32, ptr, ptr, ptr, ptr, ptr, ptr, ptr, ptr, ptr, i32, ptr, ptr, ptr, i8, ptr, ptr, i8 }
%struct._GPtrArray = type { ptr, i32 }

@all_uats = internal global ptr null, align 8

; Function Attrs: null_pointer_is_valid sspstrong uwtable
define hidden void @uat_unload_all() #0 {
  %1 = alloca i32, align 4
  %2 = alloca ptr, align 8
  call void @llvm.lifetime.start.p0(i64 4, ptr %1) #13
  store i32 0, ptr %1, align 4
  br label %3

3:                                                ; preds = %26, %0
  %4 = load i32, ptr %1, align 4
  %5 = load ptr, ptr @all_uats, align 8
  %6 = getelementptr inbounds nuw %struct._GPtrArray, ptr %5, i32 0, i32 1
  %7 = load i32, ptr %6, align 8
  %8 = icmp ult i32 %4, %7
  br i1 %8, label %9, label %29

9:                                                ; preds = %3
  call void @llvm.lifetime.start.p0(i64 8, ptr %2) #13
  %10 = load ptr, ptr @all_uats, align 8
  %11 = getelementptr inbounds nuw %struct._GPtrArray, ptr %10, i32 0, i32 0
  %12 = load ptr, ptr %11, align 8
  %13 = load i32, ptr %1, align 4
  %14 = zext i32 %13 to i64
  %15 = getelementptr ptr, ptr %12, i64 %14
  %16 = load ptr, ptr %15, align 8
  store ptr %16, ptr %2, align 8
  %17 = load ptr, ptr %2, align 8
  %18 = getelementptr inbounds nuw %struct.epan_uat, ptr %17, i32 0, i32 3
  %19 = load i8, ptr %18, align 8, !range !6, !noundef !7
  %20 = trunc i8 %19 to i1
  br i1 %20, label %21, label %25

21:                                               ; preds = %9
  %22 = load ptr, ptr %2, align 8
  call void @uat_clear(ptr noundef %22)
  %23 = load ptr, ptr %2, align 8
  %24 = getelementptr inbounds nuw %struct.epan_uat, ptr %23, i32 0, i32 22
  store i8 0, ptr %24, align 8
  br label %25

25:                                               ; preds = %21, %9
  call void @llvm.lifetime.end.p0(i64 8, ptr %2) #13
  br label %26

26:                                               ; preds = %25
  %27 = load i32, ptr %1, align 4
  %28 = add i32 %27, 1
  store i32 %28, ptr %1, align 4
  br label %3, !llvm.loop !26

29:                                               ; preds = %3
  call void @llvm.lifetime.end.p0(i64 4, ptr %1) #13
  ret void
}