; Function Attrs: null_pointer_is_valid sspstrong uwtable
define hidden void @uat_unload_all() local_unnamed_addr #0 {
  %1 = load ptr, ptr @all_uats, align 8
  %2 = getelementptr inbounds nuw i8, ptr %1, i64 8
  %3 = load i32, ptr %2, align 8
  %.not = icmp eq i32 %3, 0
  br i1 %.not, label %._crit_edge, label %.lr.ph

.lr.ph:                                           ; preds = %0, %13
  %4 = phi ptr [ %14, %13 ], [ %1, %0 ]
  %indvars.iv = phi i64 [ %indvars.iv.next, %13 ], [ 0, %0 ]
  %5 = load ptr, ptr %4, align 8
  %6 = getelementptr ptr, ptr %5, i64 %indvars.iv
  %7 = load ptr, ptr %6, align 8
  %8 = getelementptr inbounds nuw i8, ptr %7, i64 24
  %9 = load i8, ptr %8, align 8, !range !9, !noundef !10
  %10 = trunc nuw i8 %9 to i1
  br i1 %10, label %11, label %13

11:                                               ; preds = %.lr.ph
  tail call void @uat_clear(ptr noundef %7)
  %12 = getelementptr inbounds nuw i8, ptr %7, i64 176
  store i8 0, ptr %12, align 8
  %.pre = load ptr, ptr @all_uats, align 8
  br label %13

13:                                               ; preds = %11, %.lr.ph
  %14 = phi ptr [ %.pre, %11 ], [ %4, %.lr.ph ]
  %indvars.iv.next = add nuw nsw i64 %indvars.iv, 1
  %15 = getelementptr inbounds nuw i8, ptr %14, i64 8
  %16 = load i32, ptr %15, align 8
  %17 = zext i32 %16 to i64
  %18 = icmp samesign ult i64 %indvars.iv.next, %17
  br i1 %18, label %.lr.ph, label %._crit_edge, !llvm.loop !27

._crit_edge:                                      ; preds = %13, %0
  ret void
}